(dp1
S'rd'
p2
(lp3
V1fichier.com
p4
aValterupload.com
p5
aVcjoint.net
p6
aVdesfichiers.com
p7
aVdfichiers.com
p8
aVmegadl.fr
p9
aVmesfichiers.org
p10
aVpiecejointe.net
p11
aVpjointe.com
p12
aVtenvoi.com
p13
aVdl4free.com
p14
aV2shared.com
p15
aV4shared.com
p16
aVallmyvideos.net
p17
aVcanalplus.fr
p18
aVcatshare.net
p19
aVcbs.com
p20
aVcloudtime.to
p21
aVdivxstage.eu
p22
aVdivxstage.to
p23
aVdailymotion.com
p24
aVdatafile.com
p25
aVdatafilehost.com
p26
aVdatei.to
p27
aVdepfile.com
p28
aVi-filez.com
p29
aVdl.free.fr
p30
aVeasybytez.com
p31
aVexashare.com
p32
aVextmatrix.com
p33
aVfilecloud.io
p34
aVfilefactory.com
p35
aVfileflyer.com
p36
aVfileover.net
p37
aVfilerio.com
p38
aVfilerio.in
p39
aVfilesflash.com
p40
aVfilesflash.net
p41
aVfilesmonster.com
p42
aVgigapeta.com
p43
aVgigasize.com
p44
aVgboxes.com
p45
aVgulfup.com
p46
aVhugefiles.net
p47
aVhulkshare.com
p48
aVkeep2share.cc
p49
aVk2s.cc
p50
aVkeep2s.cc
p51
aVk2share.cc
p52
aVletitbit.net
p53
aVload.to
p54
aVluckyshare.net
p55
aVmediafire.com
p56
aVmega.co.nz
p57
aVmega.nz
p58
aVmegashares.com
p59
aVmovshare.net
p60
aVwholecloud.net
p61
aVnitroflare.com
p62
aVnovamov.com
p63
aVnowdownload.eu
p64
aVnowdownload.ch
p65
aVnowdownload.sx
p66
aVnowdownload.ag
p67
aVnowdownload.at
p68
aVnowdownload.ec
p69
aVnowdownload.li
p70
aVnowvideo.eu
p71
aVnowvideo.ch
p72
aVnowvideo.sx
p73
aVnowvideo.ag
p74
aVnowvideo.at
p75
aVnowvideo.li
p76
aVoboom.com
p77
aVpurevid.com
p78
aVsky.fm
p79
aVradiotunes.com
p80
aVrapidgator.net
p81
aVrg.to
p82
aVrarefile.net
p83
aVredbunker.net
p84
aVredtube.com
p85
aVrockfile.eu
p86
aVrutube.ru
p87
aVscribd.com
p88
aVsecureupload.eu
p89
aVsendspace.com
p90
aVshare-online.biz
p91
aVshareflare.net
p92
aVsoundcloud.com
p93
aVspeedyshare.com
p94
aVthevideo.me
p95
aVturbobit.net
p96
aVtusfiles.net
p97
aVulozto.net
p98
aVuloz.to
p99
aVulozto.sk
p100
aVunibytes.com
p101
aVuplea.com
p102
aVuploadable.ch
p103
aVuploadc.com
p104
aVuploadc.ch
p105
aVuploaded.net
p106
aVuploaded.to
p107
aVul.to
p108
aVuploading.com
p109
aVuploadrocket.net
p110
aVupstore.net
p111
aVuptobox.com
p112
aVuserporn.com
p113
aVveevr.com
p114
aVvimeo.com
p115
aVvip-file.com
p116
aVvipfile.in
p117
aVwat.tv
p118
aVyouporn.com
p119
aVyoutube.com
p120
aVyouwatch.org
p121
aVyunfile.com
p122
aVfilemarkets.com
p123
aV5xpan.com
p124
aVzippyshare.com
p125
asS'rp'
p126
(lp127
V1fichier.com
p128
aV24uploading.com
p129
aVakafile.com
p130
aVanafile.com
p131
aVcloudtime.to
p132
aVdatafile.com
p133
aVdepfile.com
p134
aVdivxstage.to
p135
aVezfile.ch
p136
aVfilecloud.io
p137
aVfiledais.com
p138
aVfilepup.net
p139
aVfilerio.in
p140
aVfilesabc.com
p141
aVfilesflash.com
p142
aVfilespace.com
p143
aVfiletut.com
p144
aVfiredrop.com
p145
aVhugefiles.net
p146
aVifile.it
p147
aVinclouddrive.com
p148
aVjunocloud.me
p149
aVletitbit.net
p150
aVlivefile.co.uk
p151
aVmegashares.com
p152
aVmovshare.net
p153
aVnitroflare.com
p154
aVnornar.com
p155
aVnovamov.com
p156
aVnowvideo.sx
p157
aVoboom.com
p158
aVprefiles.com
p159
aVputlocker.ws
p160
aVrapidfileshare.net
p161
aVrapidgator.net
p162
aVrapidrar.com
p163
aVrg.to
p164
aVsafelinking.net
p165
aVsalefiles.com
p166
aVsecureupload.eu
p167
aVshare-online.biz
p168
aVshareflare.net
p169
aVspeedy.sh
p170
aVspeedyshare.com
p171
aVturbobit.net
p172
aVtusfiles.net
p173
aVul.to
p174
aVunlimitzone.com
p175
aVuploadable.ch
p176
aVuploaded.net
p177
aVuploaded.to
p178
aVuploading.com
p179
aVuploadrocket.net
p180
aVuptobox.com
p181
aVvideoweed.es
p182
asS'ad'
p183
(lp184
V180upload.com
p185
aV24uploading.com
p186
aV1fichier.com
p187
aV1st-files.com
p188
aV2shared.com
p189
aV4shared.com
p190
aValbafile.com
p191
aVasfile.com
p192
aVbitshare.com
p193
aVcrocko.com
p194
aVdatafile.com
p195
aVdatei.to
p196
aVdepfile.com
p197
aVdizzcloud.com
p198
aVeasybytez.com
p199
aVexoshare.com
p200
aVextmatrix.com
p201
aVfile4safe.com
p202
aVfilebox.com
p203
aVfilecloud.org
p204
aVfileden.com
p205
aVfilefactory.com
p206
aVfileflyer.com
p207
aVfilemade.com
p208
aVfilemonkey.com
p209
aVfileover.net
p210
aVfilepost.com
p211
aVfilerio.in
p212
aVfilesabc.com
p213
aVfilesave.me
p214
aVfilesend.com
p215
aVfilesflash.com
p216
aVfilesflash.net
p217
aVfilesmonster.net
p218
aVfileswap.com
p219
aVfiredrive.com
p220
aVfreakshare.com
p221
aVfreakshare.net
p222
aVfree.fr
p223
aVgigapeta.com
p224
aVgigasize.com
p225
aVgulfup.com
p226
aVhostingbulk.com
p227
aVhulkshare.com
p228
aVjumbofiles.com
p229
aVkingfiles.net
p230
aVletitbit.net
p231
aVload.to
p232
aVluckyshare.net
p233
aVmediafire.com
p234
aVmega.co.nz
p235
aVmegashares.com
p236
aVmixturevideo.com
p237
aVmuchshare.net
p238
aVnetload.in
p239
aVnowdownload.eu
p240
aVprefiles.com
p241
aVpurevid.com
p242
aVrapidgator.net
p243
aVrg.to
p244
aVrapidshare.com
p245
aVscribd.com
p246
aVsendspace.com
p247
aVsharebeast.com
p248
aVsharebees.com
p249
aVshareflare.net
p250
aVshare-online.biz
p251
aVshare-rapid.com
p252
aVsockshare.com
p253
aVsoundcloud.com
p254
aVspeedyshare.com
p255
aVturbobit.net
p256
aVuload.to
p257
aVunibytes.com
p258
aVuplea.com
p259
aVuploadbox.com
p260
aVuploadc.com
p261
aVuploaded.to
p262
aVuploaded.net
p263
aVul.to
p264
aVuploadable.ch
p265
aVuploadhero.co
p266
aVuploading.com
p267
aVuploadking.com
p268
aVuploadspace.pl
p269
aVuptobox.com
p270
aVuserporn.com
p271
aVvidbux.com
p272
aVvidxden.com
p273
aVvip-file.com
p274
aVyoutube.com
p275
aVyunfile.com
p276
aVzippyshare.com
p277
aVzshare.net
p278
as.