(dp1
S'rd'
p2
(lp3
V1fichier.com
p4
aValterupload.com
p5
aVcjoint.net
p6
aVdesfichiers.com
p7
aVdfichiers.com
p8
aVmegadl.fr
p9
aVmesfichiers.org
p10
aVpiecejointe.net
p11
aVpjointe.com
p12
aVtenvoi.com
p13
aVdl4free.com
p14
aV2shared.com
p15
aV4shared.com
p16
aVallmyvideos.net
p17
aVcanalplus.fr
p18
aVcatshare.net
p19
aVcbs.com
p20
aVcloudtime.to
p21
aVdivxstage.eu
p22
aVdivxstage.to
p23
aVdailymotion.com
p24
aVdatafile.com
p25
aVdatafilehost.com
p26
aVdatei.to
p27
aVdepfile.com
p28
aVi-filez.com
p29
aVdl.free.fr
p30
aVeasybytez.com
p31
aVexashare.com
p32
aVextmatrix.com
p33
aVfilecloud.io
p34
aVfilefactory.com
p35
aVfileflyer.com
p36
aVfileover.net
p37
aVfilerio.com
p38
aVfilerio.in
p39
aVfilesabc.com
p40
aVfilesflash.com
p41
aVfilesflash.net
p42
aVfilesmonster.com
p43
aVgigapeta.com
p44
aVgigasize.com
p45
aVgboxes.com
p46
aVgulfup.com
p47
aVhugefiles.net
p48
aVhulkshare.com
p49
aVkeep2share.cc
p50
aVk2s.cc
p51
aVkeep2s.cc
p52
aVk2share.cc
p53
aVletitbit.net
p54
aVload.to
p55
aVluckyshare.net
p56
aVmediafire.com
p57
aVmega.co.nz
p58
aVmega.nz
p59
aVmegashares.com
p60
aVmovshare.net
p61
aVwholecloud.net
p62
aVnitroflare.com
p63
aVnovamov.com
p64
aVnowdownload.eu
p65
aVnowdownload.ch
p66
aVnowdownload.sx
p67
aVnowdownload.ag
p68
aVnowdownload.at
p69
aVnowdownload.ec
p70
aVnowdownload.li
p71
aVnowvideo.eu
p72
aVnowvideo.ch
p73
aVnowvideo.sx
p74
aVnowvideo.ag
p75
aVnowvideo.at
p76
aVnowvideo.li
p77
aVoboom.com
p78
aVpurevid.com
p79
aVsky.fm
p80
aVradiotunes.com
p81
aVrapidgator.net
p82
aVrg.to
p83
aVrarefile.net
p84
aVredbunker.net
p85
aVredtube.com
p86
aVrockfile.eu
p87
aVrutube.ru
p88
aVscribd.com
p89
aVsecureupload.eu
p90
aVsendspace.com
p91
aVshare-online.biz
p92
aVshareflare.net
p93
aVsoundcloud.com
p94
aVspeedyshare.com
p95
aVthevideo.me
p96
aVturbobit.net
p97
aVtusfiles.net
p98
aVulozto.net
p99
aVuloz.to
p100
aVulozto.sk
p101
aVunibytes.com
p102
aVuplea.com
p103
aVuploadable.ch
p104
aVuploaded.net
p105
aVuploaded.to
p106
aVul.to
p107
aVuploading.com
p108
aVuploadrocket.net
p109
aVupstore.net
p110
aVuptobox.com
p111
aVuserporn.com
p112
aVveevr.com
p113
aVvimeo.com
p114
aVvip-file.com
p115
aVvipfile.in
p116
aVwat.tv
p117
aVyouporn.com
p118
aVyoutube.com
p119
aVyouwatch.org
p120
aVyunfile.com
p121
aVfilemarkets.com
p122
aV5xpan.com
p123
aVzippyshare.com
p124
asS'rp'
p125
(lp126
V1fichier.com
p127
aV24uploading.com
p128
aVakafile.com
p129
aVanafile.com
p130
aVcloudtime.to
p131
aVdatafile.com
p132
aVdepfile.com
p133
aVdivxstage.to
p134
aVezfile.ch
p135
aVfilecloud.io
p136
aVfiledais.com
p137
aVfilepup.net
p138
aVfilerio.in
p139
aVfilesabc.com
p140
aVfilesflash.com
p141
aVfilespace.com
p142
aVfiletut.com
p143
aVfiredrop.com
p144
aVhugefiles.net
p145
aVifile.it
p146
aVinclouddrive.com
p147
aVjunocloud.me
p148
aVletitbit.net
p149
aVlivefile.co.uk
p150
aVmegashares.com
p151
aVmovshare.net
p152
aVnitroflare.com
p153
aVnornar.com
p154
aVnovamov.com
p155
aVnowvideo.sx
p156
aVoboom.com
p157
aVprefiles.com
p158
aVputlocker.ws
p159
aVrapidfileshare.net
p160
aVrapidgator.net
p161
aVrapidrar.com
p162
aVrg.to
p163
aVsafelinking.net
p164
aVsalefiles.com
p165
aVsecureupload.eu
p166
aVshare-online.biz
p167
aVshareflare.net
p168
aVspeedy.sh
p169
aVspeedyshare.com
p170
aVturbobit.net
p171
aVtusfiles.net
p172
aVul.to
p173
aVunlimitzone.com
p174
aVuploadable.ch
p175
aVuploaded.net
p176
aVuploaded.to
p177
aVuploading.com
p178
aVuploadrocket.net
p179
aVuptobox.com
p180
aVvideoweed.es
p181
asS'ad'
p182
(lp183
V180upload.com
p184
aV24uploading.com
p185
aV1fichier.com
p186
aV1st-files.com
p187
aV2shared.com
p188
aV4shared.com
p189
aValbafile.com
p190
aVasfile.com
p191
aVbitshare.com
p192
aVcrocko.com
p193
aVdatafile.com
p194
aVdatei.to
p195
aVdepfile.com
p196
aVdizzcloud.com
p197
aVeasybytez.com
p198
aVexoshare.com
p199
aVextmatrix.com
p200
aVfile4safe.com
p201
aVfilebox.com
p202
aVfilecloud.org
p203
aVfileden.com
p204
aVfilefactory.com
p205
aVfileflyer.com
p206
aVfilemade.com
p207
aVfilemonkey.com
p208
aVfileover.net
p209
aVfilepost.com
p210
aVfilerio.in
p211
aVfilesabc.com
p212
aVfilesave.me
p213
aVfilesend.com
p214
aVfilesflash.com
p215
aVfilesflash.net
p216
aVfilesmonster.net
p217
aVfileswap.com
p218
aVfiredrive.com
p219
aVfreakshare.com
p220
aVfreakshare.net
p221
aVfree.fr
p222
aVgigapeta.com
p223
aVgigasize.com
p224
aVgulfup.com
p225
aVhostingbulk.com
p226
aVhulkshare.com
p227
aVjumbofiles.com
p228
aVkingfiles.net
p229
aVletitbit.net
p230
aVload.to
p231
aVluckyshare.net
p232
aVmediafire.com
p233
aVmega.co.nz
p234
aVmegashares.com
p235
aVmixturevideo.com
p236
aVmuchshare.net
p237
aVnetload.in
p238
aVnowdownload.eu
p239
aVprefiles.com
p240
aVpurevid.com
p241
aVrapidgator.net
p242
aVrg.to
p243
aVrapidshare.com
p244
aVscribd.com
p245
aVsendspace.com
p246
aVsharebeast.com
p247
aVsharebees.com
p248
aVshareflare.net
p249
aVshare-online.biz
p250
aVshare-rapid.com
p251
aVsockshare.com
p252
aVsoundcloud.com
p253
aVspeedyshare.com
p254
aVturbobit.net
p255
aVuload.to
p256
aVunibytes.com
p257
aVuplea.com
p258
aVuploadbox.com
p259
aVuploadc.com
p260
aVuploaded.to
p261
aVuploaded.net
p262
aVul.to
p263
aVuploadable.ch
p264
aVuploadhero.co
p265
aVuploading.com
p266
aVuploadking.com
p267
aVuploadspace.pl
p268
aVuptobox.com
p269
aVuserporn.com
p270
aVvidbux.com
p271
aVvidxden.com
p272
aVvip-file.com
p273
aVyoutube.com
p274
aVyunfile.com
p275
aVzippyshare.com
p276
aVzshare.net
p277
as.